target datalayout = "e-m:e-p270:32:32-p271:32:32-p272:64:64-i64:64-i128:128-f80:128-n8:16:32:64-S128"
target triple = "x86_64-pc-linux-gnu"

@_ZL15pTraceEntryFunc = internal global ptr null, align 8
@_ZL13gTraceContext = internal global ptr null, align 8

; Function Attrs: mustprogress uwtable
define void @utrace_entry_77(i32 noundef %0) #0 {
  %2 = alloca i32, align 4
  store i32 %0, ptr %2, align 4, !tbaa !3
  %3 = load ptr, ptr @_ZL15pTraceEntryFunc, align 8, !tbaa !7
  %4 = icmp ne ptr %3, null
  br i1 %4, label %5, label %9

5:                                                ; preds = %1
  %6 = load ptr, ptr @_ZL15pTraceEntryFunc, align 8, !tbaa !7
  %7 = load ptr, ptr @_ZL13gTraceContext, align 8, !tbaa !7
  %8 = load i32, ptr %2, align 4, !tbaa !3
  call void %6(ptr noundef %7, i32 noundef %8)
  br label %9

9:                                                ; preds = %5, %1
  ret void
}