; Function Attrs: mustprogress uwtable
define void @utrace_entry_77(i32 noundef %0) local_unnamed_addr #0 {
  %2 = load ptr, ptr @_ZL15pTraceEntryFunc, align 8, !tbaa !3
  %.not = icmp eq ptr %2, null
  br i1 %.not, label %5, label %3

3:                                                ; preds = %1
  %4 = load ptr, ptr @_ZL13gTraceContext, align 8, !tbaa !3
  tail call void %2(ptr noundef %4, i32 noundef %0)
  br label %5

5:                                                ; preds = %3, %1
  ret void
}